target datalayout = "e-m:e-p270:32:32-p271:32:32-p272:64:64-i64:64-i128:128-f80:128-n8:16:32:64-S128"
target triple = "x86_64-pc-linux-gnu"

%struct.AVFormatContext = type { ptr, ptr, ptr, ptr, ptr, i32, i32, ptr, i32, ptr, i32, ptr, ptr, i64, i64, i64, i32, i32, i32, i64, i64, ptr, i32, i32, ptr, i32, i32, i32, i32, ptr, i64, i32, i32, %struct.AVIOInterruptCB, i32, i32, i32, i32, i64, i32, i32, i32, i32, i32, i32, i32, i32, i32, i32, i32, i32, i64, i32, i32, i32, i32, i32, ptr, ptr, ptr, ptr, i32, ptr, ptr, ptr, ptr, i32, ptr, ptr, i64, ptr, ptr, ptr, i64 }
%struct.AVIOInterruptCB = type { ptr, ptr }
%struct.AVDictionaryEntry = type { ptr, ptr }

@.str.501 = private unnamed_addr constant [6 x i8] c"track\00", align 1
@.str.506 = private unnamed_addr constant [5 x i8] c"data\00", align 1
@.str.560 = private unnamed_addr constant [5 x i8] c"disc\00", align 1
@.str.561 = private unnamed_addr constant [5 x i8] c"disk\00", align 1
@.str.562 = private unnamed_addr constant [5 x i8] c"trkn\00", align 1

; Function Attrs: alwaysinline nounwind uwtable
define internal void @ffio_wfourcc(ptr noundef %0, ptr noundef %1) #6 {
  %3 = alloca ptr, align 8
  %4 = alloca ptr, align 8
  store ptr %0, ptr %3, align 8, !tbaa !31
  store ptr %1, ptr %4, align 8, !tbaa !38
  %5 = load ptr, ptr %3, align 8, !tbaa !31
  %6 = load ptr, ptr %4, align 8, !tbaa !38
  %7 = getelementptr inbounds i8, ptr %6, i64 0
  %8 = load i8, ptr %7, align 1, !tbaa !85
  %9 = zext i8 %8 to i32
  %10 = load ptr, ptr %4, align 8, !tbaa !38
  %11 = getelementptr inbounds i8, ptr %10, i64 1
  %12 = load i8, ptr %11, align 1, !tbaa !85
  %13 = zext i8 %12 to i32
  %14 = shl i32 %13, 8
  %15 = or i32 %9, %14
  %16 = load ptr, ptr %4, align 8, !tbaa !38
  %17 = getelementptr inbounds i8, ptr %16, i64 2
  %18 = load i8, ptr %17, align 1, !tbaa !85
  %19 = zext i8 %18 to i32
  %20 = shl i32 %19, 16
  %21 = or i32 %15, %20
  %22 = load ptr, ptr %4, align 8, !tbaa !38
  %23 = getelementptr inbounds i8, ptr %22, i64 3
  %24 = load i8, ptr %23, align 1, !tbaa !85
  %25 = zext i8 %24 to i32
  %26 = shl i32 %25, 24
  %27 = or i32 %21, %26
  call void @avio_wl32(ptr noundef %5, i32 noundef %27)
  ret void
}

; Function Attrs: inlinehint nounwind willreturn memory(read) uwtable
define available_externally i32 @atoi(ptr noundef nonnull %0) #13 {
  %2 = alloca ptr, align 8
  store ptr %0, ptr %2, align 8, !tbaa !38
  %3 = load ptr, ptr %2, align 8, !tbaa !38
  %4 = call i64 @strtol(ptr noundef %3, ptr noundef null, i32 noundef 10) #14
  %5 = trunc i64 %4 to i32
  ret i32 %5
}

; Function Attrs: nounwind uwtable
define internal i32 @mov_write_trkn_tag(ptr noundef %0, ptr noundef %1, ptr noundef %2, i32 noundef %3) #0 {
  %5 = alloca ptr, align 8
  %6 = alloca ptr, align 8
  %7 = alloca ptr, align 8
  %8 = alloca i32, align 4
  %9 = alloca ptr, align 8
  %10 = alloca i32, align 4
  %11 = alloca i32, align 4
  %12 = alloca i32, align 4
  %13 = alloca ptr, align 8
  store ptr %0, ptr %5, align 8, !tbaa !31
  store ptr %1, ptr %6, align 8, !tbaa !28
  store ptr %2, ptr %7, align 8, !tbaa !4
  store i32 %3, ptr %8, align 4, !tbaa !32
  call void @llvm.lifetime.start.p0(i64 8, ptr %9) #14
  %14 = load ptr, ptr %7, align 8, !tbaa !4
  %15 = getelementptr inbounds nuw %struct.AVFormatContext, ptr %14, i32 0, i32 29
  %16 = load ptr, ptr %15, align 8, !tbaa !209
  %17 = load i32, ptr %8, align 4, !tbaa !32
  %18 = icmp ne i32 %17, 0
  %19 = select i1 %18, ptr @.str.560, ptr @.str.501
  %20 = call ptr @av_dict_get(ptr noundef %16, ptr noundef %19, ptr noundef null, i32 noundef 0)
  store ptr %20, ptr %9, align 8, !tbaa !210
  call void @llvm.lifetime.start.p0(i64 4, ptr %10) #14
  store i32 0, ptr %10, align 4, !tbaa !32
  call void @llvm.lifetime.start.p0(i64 4, ptr %11) #14
  %21 = load ptr, ptr %9, align 8, !tbaa !210
  %22 = icmp ne ptr %21, null
  br i1 %22, label %23, label %28

23:                                               ; preds = %4
  %24 = load ptr, ptr %9, align 8, !tbaa !210
  %25 = getelementptr inbounds nuw %struct.AVDictionaryEntry, ptr %24, i32 0, i32 1
  %26 = load ptr, ptr %25, align 8, !tbaa !213
  %27 = call i32 @atoi(ptr noundef %26) #17
  br label %29

28:                                               ; preds = %4
  br label %29

29:                                               ; preds = %28, %23
  %30 = phi i32 [ %27, %23 ], [ 0, %28 ]
  store i32 %30, ptr %11, align 4, !tbaa !32
  %31 = load i32, ptr %11, align 4, !tbaa !32
  %32 = icmp ne i32 %31, 0
  br i1 %32, label %33, label %60

33:                                               ; preds = %29
  call void @llvm.lifetime.start.p0(i64 4, ptr %12) #14
  store i32 0, ptr %12, align 4, !tbaa !32
  call void @llvm.lifetime.start.p0(i64 8, ptr %13) #14
  %34 = load ptr, ptr %9, align 8, !tbaa !210
  %35 = getelementptr inbounds nuw %struct.AVDictionaryEntry, ptr %34, i32 0, i32 1
  %36 = load ptr, ptr %35, align 8, !tbaa !213
  %37 = call ptr @strchr(ptr noundef %36, i32 noundef 47) #17
  store ptr %37, ptr %13, align 8, !tbaa !38
  %38 = load ptr, ptr %13, align 8, !tbaa !38
  %39 = icmp ne ptr %38, null
  br i1 %39, label %40, label %44

40:                                               ; preds = %33
  %41 = load ptr, ptr %13, align 8, !tbaa !38
  %42 = getelementptr inbounds i8, ptr %41, i64 1
  %43 = call i32 @atoi(ptr noundef %42) #17
  store i32 %43, ptr %12, align 4, !tbaa !32
  br label %44

44:                                               ; preds = %40, %33
  %45 = load ptr, ptr %5, align 8, !tbaa !31
  call void @avio_wb32(ptr noundef %45, i32 noundef 32)
  %46 = load ptr, ptr %5, align 8, !tbaa !31
  %47 = load i32, ptr %8, align 4, !tbaa !32
  %48 = icmp ne i32 %47, 0
  %49 = select i1 %48, ptr @.str.561, ptr @.str.562
  call void @ffio_wfourcc(ptr noundef %46, ptr noundef %49)
  %50 = load ptr, ptr %5, align 8, !tbaa !31
  call void @avio_wb32(ptr noundef %50, i32 noundef 24)
  %51 = load ptr, ptr %5, align 8, !tbaa !31
  call void @ffio_wfourcc(ptr noundef %51, ptr noundef @.str.506)
  %52 = load ptr, ptr %5, align 8, !tbaa !31
  call void @avio_wb32(ptr noundef %52, i32 noundef 0)
  %53 = load ptr, ptr %5, align 8, !tbaa !31
  call void @avio_wb32(ptr noundef %53, i32 noundef 0)
  %54 = load ptr, ptr %5, align 8, !tbaa !31
  call void @avio_wb16(ptr noundef %54, i32 noundef 0)
  %55 = load ptr, ptr %5, align 8, !tbaa !31
  %56 = load i32, ptr %11, align 4, !tbaa !32
  call void @avio_wb16(ptr noundef %55, i32 noundef %56)
  %57 = load ptr, ptr %5, align 8, !tbaa !31
  %58 = load i32, ptr %12, align 4, !tbaa !32
  call void @avio_wb16(ptr noundef %57, i32 noundef %58)
  %59 = load ptr, ptr %5, align 8, !tbaa !31
  call void @avio_wb16(ptr noundef %59, i32 noundef 0)
  store i32 32, ptr %10, align 4, !tbaa !32
  call void @llvm.lifetime.end.p0(i64 8, ptr %13) #14
  call void @llvm.lifetime.end.p0(i64 4, ptr %12) #14
  br label %60

60:                                               ; preds = %44, %29
  %61 = load i32, ptr %10, align 4, !tbaa !32
  call void @llvm.lifetime.end.p0(i64 4, ptr %11) #14
  call void @llvm.lifetime.end.p0(i64 4, ptr %10) #14
  call void @llvm.lifetime.end.p0(i64 8, ptr %9) #14
  ret i32 %61
}