; Function Attrs: nounwind uwtable
define internal fastcc void @mov_write_trkn_tag(ptr noundef %0, ptr %.192.val, i32 noundef range(i32 0, 2) %1) unnamed_addr #0 {
  %.not = icmp eq i32 %1, 0
  %3 = select i1 %.not, ptr @.str.501, ptr @.str.560
  %4 = tail call ptr @av_dict_get(ptr noundef %.192.val, ptr noundef nonnull %3, ptr noundef null, i32 noundef 0) #16
  %.not25 = icmp eq ptr %4, null
  br i1 %.not25, label %.thread, label %5

5:                                                ; preds = %2
  %6 = getelementptr inbounds nuw i8, ptr %4, i64 8
  %7 = load ptr, ptr %6, align 8, !tbaa !203
  %8 = tail call i64 @strtol(ptr noundef nonnull captures(none) %7, ptr noundef null, i32 noundef 10) #16
  %9 = trunc i64 %8 to i32
  %.not26 = icmp eq i32 %9, 0
  br i1 %.not26, label %.thread, label %10

10:                                               ; preds = %5
  %11 = load ptr, ptr %6, align 8, !tbaa !203
  %12 = tail call ptr @strchr(ptr noundef nonnull dereferenceable(1) %11, i32 noundef 47) #18
  %.not27 = icmp eq ptr %12, null
  br i1 %.not27, label %17, label %13

13:                                               ; preds = %10
  %14 = getelementptr inbounds nuw i8, ptr %12, i64 1
  %15 = tail call i64 @strtol(ptr noundef nonnull captures(none) %14, ptr noundef null, i32 noundef 10) #16
  %16 = trunc i64 %15 to i32
  br label %17

17:                                               ; preds = %13, %10
  %.021 = phi i32 [ %16, %13 ], [ 0, %10 ]
  tail call void @avio_wb32(ptr noundef %0, i32 noundef 32) #16
  %18 = select i1 %.not, i32 1852535412, i32 1802725732
  tail call void @avio_wl32(ptr noundef %0, i32 noundef %18) #16
  tail call void @avio_wb32(ptr noundef %0, i32 noundef 24) #16
  tail call void @avio_wl32(ptr noundef %0, i32 noundef 1635017060) #16
  tail call void @avio_wb32(ptr noundef %0, i32 noundef 0) #16
  tail call void @avio_wb32(ptr noundef %0, i32 noundef 0) #16
  tail call void @avio_wb16(ptr noundef %0, i32 noundef 0) #16
  tail call void @avio_wb16(ptr noundef %0, i32 noundef %9) #16
  tail call void @avio_wb16(ptr noundef %0, i32 noundef %.021) #16
  tail call void @avio_wb16(ptr noundef %0, i32 noundef 0) #16
  br label %.thread

.thread:                                          ; preds = %2, %17, %5
  ret void
}